target datalayout = "e-m:e-p270:32:32-p271:32:32-p272:64:64-i64:64-i128:128-f80:128-n8:16:32:64-S128"
target triple = "x86_64-pc-linux-gnu"

%"class.std::__cxx11::basic_string" = type { %"struct.std::__cxx11::basic_string<char>::_Alloc_hider", i64, %union.anon }
%"struct.std::__cxx11::basic_string<char>::_Alloc_hider" = type { ptr }
%union.anon = type { i64, [8 x i8] }
%"class.pbrt::IPCChannel" = type <{ i32, [4 x i8], %"class.std::__cxx11::basic_string", %"class.std::__cxx11::basic_string", i32, [4 x i8] }>

@.str.2 = private unnamed_addr constant [119 x i8] c"generated/home/dtcxzyw/WorkSpace/Projects/compilers/llvm-opt-benchmark/bench/pbrt-v4/pbrt-v4/src/pbrt/util/display.cpp\00", align 1
@.str.13 = private unnamed_addr constant [17 x i8] c"Check failed: %s\00", align 1
@.str.14 = private unnamed_addr constant [12 x i8] c"Connected()\00", align 1

; Function Attrs: mustprogress uwtable
define internal noundef i32 @_ZN4pbrtL11closeSocketEi(i32 noundef %0) #1 {
  %2 = alloca i32, align 4
  store i32 %0, ptr %2, align 4, !tbaa !28
  %3 = load i32, ptr %2, align 4, !tbaa !28
  %4 = call i32 @close(i32 noundef %3)
  ret i32 %4
}

; Function Attrs: mustprogress nounwind uwtable
define linkonce_odr dso_local noundef zeroext i1 @_ZNK4pbrt10IPCChannel9ConnectedEv(ptr noundef nonnull align 8 dereferenceable(76) %0) #3 comdat align 2 {
  %2 = alloca ptr, align 8
  store ptr %0, ptr %2, align 8, !tbaa !13
  %3 = load ptr, ptr %2, align 8
  %4 = getelementptr inbounds nuw %"class.pbrt::IPCChannel", ptr %3, i32 0, i32 4
  %5 = load i32, ptr %4, align 8, !tbaa !24
  %6 = icmp ne i32 %5, -1
  ret i1 %6
}

; Function Attrs: mustprogress uwtable
define dso_local void @_ZN4pbrt10IPCChannel10DisconnectEv(ptr noundef nonnull align 8 dereferenceable(76) %0) #1 align 2 {
  %2 = alloca ptr, align 8
  store ptr %0, ptr %2, align 8, !tbaa !13
  %3 = load ptr, ptr %2, align 8
  %4 = call noundef zeroext i1 @_ZNK4pbrt10IPCChannel9ConnectedEv(ptr noundef nonnull align 8 dereferenceable(76) %3)
  br i1 %4, label %7, label %5

5:                                                ; preds = %1
  call void @_ZN4pbrt8LogFatalIJRA12_KcEEEvNS_8LogLevelEPS1_iS5_DpOT_(i32 noundef 2, ptr noundef @.str.2, i32 noundef 176, ptr noundef @.str.13, ptr noundef nonnull align 1 dereferenceable(12) @.str.14) #21
  unreachable

6:                                                ; No predecessors!
  br label %7

7:                                                ; preds = %6, %1
  %8 = getelementptr inbounds nuw %"class.pbrt::IPCChannel", ptr %3, i32 0, i32 4
  %9 = load i32, ptr %8, align 8, !tbaa !24
  %10 = call noundef i32 @_ZN4pbrtL11closeSocketEi(i32 noundef %9)
  %11 = getelementptr inbounds nuw %"class.pbrt::IPCChannel", ptr %3, i32 0, i32 4
  store i32 -1, ptr %11, align 8, !tbaa !24
  ret void
}