; Function Attrs: mustprogress uwtable
define dso_local void @_ZN4pbrt10IPCChannel10DisconnectEv(ptr noundef nonnull align 8 captures(none) dereferenceable(76) %0) local_unnamed_addr #1 align 2 {
  %2 = getelementptr inbounds nuw i8, ptr %0, i64 72
  %3 = load i32, ptr %2, align 8, !tbaa !17
  %.not = icmp eq i32 %3, -1
  br i1 %.not, label %4, label %5

4:                                                ; preds = %1
  tail call void @_ZN4pbrt8LogFatalIJRA12_KcEEEvNS_8LogLevelEPS1_iS5_DpOT_(i32 noundef 2, ptr noundef nonnull @.str.2, i32 noundef 176, ptr noundef nonnull @.str.13, ptr noundef nonnull align 1 dereferenceable(12) @.str.14) #25
  unreachable

5:                                                ; preds = %1
  %6 = tail call noundef i32 @close(i32 noundef %3)
  store i32 -1, ptr %2, align 8, !tbaa !17
  ret void
}